target datalayout = "e-m:e-p270:32:32-p271:32:32-p272:64:64-i64:64-i128:128-f80:128-n8:16:32:64-S128"
target triple = "x86_64-pc-linux-gnu"

%struct.Node = type { i32 }
%struct.TypeName = type { i32, ptr, i32, i8, i8, ptr, i32, ptr, i32 }
%struct.JsonReturning = type { i32, ptr, i32, i32 }
%struct.JsonOutput = type { i32, ptr, ptr }

@.str.41 = private unnamed_addr constant [13 x i8] c"parse_expr.c\00", align 1
@.str.159 = private unnamed_addr constant [45 x i8] c"cannot use type %s in RETURNING clause of %s\00", align 1
@.str.160 = private unnamed_addr constant [29 x i8] c"Try returning json or jsonb.\00", align 1
@__func__.transformJsonReturning = private unnamed_addr constant [23 x i8] c"transformJsonReturning\00", align 1

; Function Attrs: inlinehint nounwind uwtable
define internal ptr @newNode(i64 noundef %0, i32 noundef %1) #4 {
  %3 = alloca i64, align 8
  %4 = alloca i32, align 4
  %5 = alloca ptr, align 8
  store i64 %0, ptr %3, align 8
  store i32 %1, ptr %4, align 4
  call void @llvm.lifetime.start.p0(i64 8, ptr %5) #8
  %6 = load i64, ptr %3, align 8
  %7 = call ptr @palloc0(i64 noundef %6)
  store ptr %7, ptr %5, align 8
  %8 = load i32, ptr %4, align 4
  %9 = load ptr, ptr %5, align 8
  %10 = getelementptr inbounds nuw %struct.Node, ptr %9, i32 0, i32 0
  store i32 %8, ptr %10, align 4
  %11 = load ptr, ptr %5, align 8
  call void @llvm.lifetime.end.p0(i64 8, ptr %5) #8
  ret ptr %11
}

; Function Attrs: nounwind uwtable
define internal ptr @transformJsonReturning(ptr noundef %0, ptr noundef %1, ptr noundef %2) #0 {
  %4 = alloca ptr, align 8
  %5 = alloca ptr, align 8
  %6 = alloca ptr, align 8
  %7 = alloca ptr, align 8
  %8 = alloca i32, align 4
  %9 = alloca i32, align 4
  store ptr %0, ptr %4, align 8
  store ptr %1, ptr %5, align 8
  store ptr %2, ptr %6, align 8
  call void @llvm.lifetime.start.p0(i64 8, ptr %7) #8
  %10 = load ptr, ptr %5, align 8
  %11 = icmp ne ptr %10, null
  br i1 %11, label %12, label %51

12:                                               ; preds = %3
  %13 = load ptr, ptr %4, align 8
  %14 = load ptr, ptr %5, align 8
  %15 = call ptr @transformJsonOutput(ptr noundef %13, ptr noundef %14, i1 noundef zeroext false)
  store ptr %15, ptr %7, align 8
  %16 = load ptr, ptr %7, align 8
  %17 = getelementptr inbounds nuw %struct.JsonReturning, ptr %16, i32 0, i32 2
  %18 = load i32, ptr %17, align 8
  %19 = icmp ne i32 %18, 114
  br i1 %19, label %20, label %50

20:                                               ; preds = %12
  %21 = load ptr, ptr %7, align 8
  %22 = getelementptr inbounds nuw %struct.JsonReturning, ptr %21, i32 0, i32 2
  %23 = load i32, ptr %22, align 8
  %24 = icmp ne i32 %23, 3802
  br i1 %24, label %25, label %50

25:                                               ; preds = %20
  br label %26

26:                                               ; preds = %25
  br i1 true, label %27, label %29

27:                                               ; preds = %26
  %28 = call zeroext i1 @errstart_cold(i32 noundef 21, ptr noundef null) #9
  br i1 %28, label %31, label %47

29:                                               ; preds = %26
  %30 = call zeroext i1 @errstart(i32 noundef 21, ptr noundef null)
  br i1 %30, label %31, label %47

31:                                               ; preds = %29, %27
  %32 = call i32 @errcode(i32 noundef 67141764)
  %33 = load ptr, ptr %7, align 8
  %34 = getelementptr inbounds nuw %struct.JsonReturning, ptr %33, i32 0, i32 2
  %35 = load i32, ptr %34, align 8
  %36 = call ptr @format_type_be(i32 noundef %35)
  %37 = load ptr, ptr %6, align 8
  %38 = call i32 (ptr, ...) @errmsg(ptr noundef @.str.159, ptr noundef %36, ptr noundef %37)
  %39 = call i32 (ptr, ...) @errhint(ptr noundef @.str.160)
  %40 = load ptr, ptr %4, align 8
  %41 = load ptr, ptr %5, align 8
  %42 = getelementptr inbounds nuw %struct.JsonOutput, ptr %41, i32 0, i32 1
  %43 = load ptr, ptr %42, align 8
  %44 = getelementptr inbounds nuw %struct.TypeName, ptr %43, i32 0, i32 8
  %45 = load i32, ptr %44, align 8
  %46 = call i32 @parser_errposition(ptr noundef %40, i32 noundef %45)
  call void @errfinish(ptr noundef @.str.41, i32 noundef 4129, ptr noundef @__func__.transformJsonReturning)
  br label %47

47:                                               ; preds = %31, %29, %27
  unreachable

48:                                               ; No predecessors!
  br label %49

49:                                               ; preds = %48
  br label %50

50:                                               ; preds = %49, %20, %12
  br label %62

51:                                               ; preds = %3
  call void @llvm.lifetime.start.p0(i64 4, ptr %8) #8
  store i32 114, ptr %8, align 4
  call void @llvm.lifetime.start.p0(i64 4, ptr %9) #8
  store i32 1, ptr %9, align 4
  %52 = call ptr @newNode(i64 noundef 24, i32 noundef 43)
  store ptr %52, ptr %7, align 8
  %53 = load i32, ptr %9, align 4
  %54 = call ptr @makeJsonFormat(i32 noundef %53, i32 noundef 0, i32 noundef -1)
  %55 = load ptr, ptr %7, align 8
  %56 = getelementptr inbounds nuw %struct.JsonReturning, ptr %55, i32 0, i32 1
  store ptr %54, ptr %56, align 8
  %57 = load i32, ptr %8, align 4
  %58 = load ptr, ptr %7, align 8
  %59 = getelementptr inbounds nuw %struct.JsonReturning, ptr %58, i32 0, i32 2
  store i32 %57, ptr %59, align 8
  %60 = load ptr, ptr %7, align 8
  %61 = getelementptr inbounds nuw %struct.JsonReturning, ptr %60, i32 0, i32 3
  store i32 -1, ptr %61, align 4
  call void @llvm.lifetime.end.p0(i64 4, ptr %9) #8
  call void @llvm.lifetime.end.p0(i64 4, ptr %8) #8
  br label %62

62:                                               ; preds = %51, %50
  %63 = load ptr, ptr %7, align 8
  call void @llvm.lifetime.end.p0(i64 8, ptr %7) #8
  ret ptr %63
}