; Function Attrs: nounwind uwtable
define internal fastcc ptr @transformJsonReturning(ptr noundef %0, ptr noundef captures(address_is_null) %1, ptr noundef %2) unnamed_addr #0 {
  %.not = icmp eq ptr %1, null
  br i1 %.not, label %20, label %4

4:                                                ; preds = %3
  %5 = tail call fastcc ptr @transformJsonOutput(ptr noundef %0, ptr noundef nonnull %1, i1 noundef zeroext false)
  %6 = getelementptr inbounds nuw i8, ptr %5, i64 16
  %7 = load i32, ptr %6, align 8
  switch i32 %7, label %8 [
    i32 114, label %26
    i32 3802, label %26
  ]

8:                                                ; preds = %4
  %9 = tail call zeroext i1 @errstart_cold(i32 noundef 21, ptr noundef null) #10
  tail call void @llvm.assume(i1 %9)
  %10 = tail call i32 @errcode(i32 noundef 67141764) #9
  %11 = load i32, ptr %6, align 8
  %12 = tail call ptr @format_type_be(i32 noundef %11) #9
  %13 = tail call i32 (ptr, ...) @errmsg(ptr noundef nonnull @.str.159, ptr noundef %12, ptr noundef %2) #9
  %14 = tail call i32 (ptr, ...) @errhint(ptr noundef nonnull @.str.160) #9
  %15 = getelementptr inbounds nuw i8, ptr %1, i64 8
  %16 = load ptr, ptr %15, align 8
  %17 = getelementptr inbounds nuw i8, ptr %16, i64 48
  %18 = load i32, ptr %17, align 8
  %19 = tail call i32 @parser_errposition(ptr noundef %0, i32 noundef %18) #9
  tail call void @errfinish(ptr noundef nonnull @.str.41, i32 noundef 4129, ptr noundef nonnull @__func__.transformJsonReturning) #9
  unreachable

20:                                               ; preds = %3
  %21 = tail call noundef ptr @palloc0(i64 noundef 24) #9
  store i32 43, ptr %21, align 4
  %22 = tail call ptr @makeJsonFormat(i32 noundef 1, i32 noundef 0, i32 noundef -1) #9
  %23 = getelementptr inbounds nuw i8, ptr %21, i64 8
  store ptr %22, ptr %23, align 8
  %24 = getelementptr inbounds nuw i8, ptr %21, i64 16
  store i32 114, ptr %24, align 8
  %25 = getelementptr inbounds nuw i8, ptr %21, i64 20
  store i32 -1, ptr %25, align 4
  br label %26

26:                                               ; preds = %4, %4, %20
  %.0 = phi ptr [ %5, %4 ], [ %21, %20 ], [ %5, %4 ]
  ret ptr %.0
}